; Function Attrs: mustprogress uwtable
define void @_ZN4LIEF3DEX6MethodC2Ev(ptr noundef nonnull align 8 dereferenceable(176) %0) unnamed_addr #0 align 2 personality ptr @__gxx_personality_v0 {
  tail call void @_ZN4LIEF6ObjectC2Ev(ptr noundef nonnull align 8 dereferenceable(8) %0)
  store ptr getelementptr inbounds ({ [7 x ptr] }, ptr @_ZTVN4LIEF3DEX6MethodE, i64 0, i32 0, i64 2), ptr %0, align 8
  %2 = getelementptr inbounds i8, ptr %0, i64 8
  tail call void @_ZNSt7__cxx1112basic_stringIcSt11char_traitsIcESaIcEEC1Ev(ptr noundef nonnull align 8 dereferenceable(32) %2) #19
  %3 = getelementptr inbounds i8, ptr %0, i64 40
  %4 = getelementptr inbounds i8, ptr %0, i64 60
  tail call void @llvm.memset.p0.i64(ptr noundef nonnull align 8 dereferenceable(20) %3, i8 0, i64 20, i1 false)
  store i32 -1, ptr %4, align 4
  %5 = getelementptr inbounds i8, ptr %0, i64 64
  store i8 0, ptr %5, align 8
  %6 = getelementptr inbounds i8, ptr %0, i64 72
  %7 = getelementptr inbounds i8, ptr %0, i64 104
  tail call void @llvm.memset.p0.i64(ptr noundef nonnull align 8 dereferenceable(32) %6, i8 0, i64 32, i1 false)
  invoke void @_ZN4LIEF3DEX8CodeInfoC1Ev(ptr noundef nonnull align 8 dereferenceable(14) %7)
          to label %8 unwind label %15

8:                                                ; preds = %1
  %9 = getelementptr inbounds i8, ptr %0, i64 120
  %10 = getelementptr inbounds i8, ptr %0, i64 168
  store ptr %10, ptr %9, align 8
  %11 = getelementptr inbounds i8, ptr %0, i64 128
  store i64 1, ptr %11, align 8
  %12 = getelementptr inbounds i8, ptr %0, i64 136
  %13 = getelementptr inbounds i8, ptr %0, i64 152
  tail call void @llvm.memset.p0.i64(ptr noundef nonnull align 8 dereferenceable(16) %12, i8 0, i64 16, i1 false)
  store float 1.000000e+00, ptr %13, align 8
  %14 = getelementptr inbounds i8, ptr %0, i64 160
  tail call void @llvm.memset.p0.i64(ptr noundef nonnull align 8 dereferenceable(16) %14, i8 0, i64 16, i1 false)
  ret void

15:                                               ; preds = %1
  %16 = landingpad { ptr, i32 }
          cleanup
  %17 = getelementptr inbounds i8, ptr %0, i64 80
  %18 = load ptr, ptr %17, align 8
  %.not.i.i.i = icmp eq ptr %18, null
  br i1 %.not.i.i.i, label %_ZNSt6vectorIhSaIhEED2Ev.exit, label %19

19:                                               ; preds = %15
  tail call void @_ZdlPv(ptr noundef nonnull %18) #20
  br label %_ZNSt6vectorIhSaIhEED2Ev.exit

_ZNSt6vectorIhSaIhEED2Ev.exit:                    ; preds = %15, %19
  tail call void @_ZNSt7__cxx1112basic_stringIcSt11char_traitsIcESaIcEED1Ev(ptr noundef nonnull align 8 dereferenceable(32) %2) #19
  tail call void @_ZN4LIEF6ObjectD2Ev(ptr noundef nonnull align 8 dereferenceable(8) %0) #19
  resume { ptr, i32 } %16
}